target datalayout = "e-m:e-p270:32:32-p271:32:32-p272:64:64-i64:64-i128:128-f80:128-n8:16:32:64-S128"
target triple = "x86_64-unknown-linux-gnu"

%"class.icu_75::PluralFormat" = type { %"class.icu_75::Format.base", [6 x i8], %"class.icu_75::Locale", %"class.icu_75::MessagePattern", ptr, double, %"class.icu_75::PluralFormat::PluralSelectorAdapter" }
%"class.icu_75::Format.base" = type <{ %"class.icu_75::UObject", [157 x i8], [157 x i8] }>
%"class.icu_75::UObject" = type { ptr }
%"class.icu_75::Locale" = type <{ %"class.icu_75::UObject", [12 x i8], [6 x i8], [4 x i8], [2 x i8], i32, [4 x i8], ptr, [157 x i8], [3 x i8], ptr, i8, [7 x i8] }>
%"class.icu_75::MessagePattern" = type <{ %"class.icu_75::UObject", i32, [4 x i8], %"class.icu_75::UnicodeString", ptr, ptr, i32, [4 x i8], ptr, ptr, i32, i8, i8, i8, i8 }>
%"class.icu_75::UnicodeString" = type { %"class.icu_75::Replaceable", %"union.icu_75::UnicodeString::StackBufferOrFields" }
%"class.icu_75::Replaceable" = type { %"class.icu_75::UObject" }
%"union.icu_75::UnicodeString::StackBufferOrFields" = type { %struct.anon.0, [32 x i8] }
%struct.anon.0 = type { i16, i32, i32, ptr }
%"class.icu_75::PluralFormat::PluralSelectorAdapter" = type { %"class.icu_75::PluralFormat::PluralSelector", ptr }
%"class.icu_75::PluralFormat::PluralSelector" = type { ptr }

; Function Attrs: mustprogress uwtable
define noundef zeroext i1 @_ZNK6icu_7512PluralFormateqERKNS_6FormatE(ptr noundef nonnull align 8 dereferenceable(712) %this, ptr noundef nonnull align 8 dereferenceable(322) %other) unnamed_addr #1 align 2 {
entry:
  %retval = alloca i1, align 1
  %this.addr = alloca ptr, align 8
  %other.addr = alloca ptr, align 8
  %o = alloca ptr, align 8
  store ptr %this, ptr %this.addr, align 8
  store ptr %other, ptr %other.addr, align 8
  %this1 = load ptr, ptr %this.addr, align 8
  %0 = load ptr, ptr %other.addr, align 8
  %cmp = icmp eq ptr %this1, %0
  br i1 %cmp, label %if.then, label %if.end

if.then:                                          ; preds = %entry
  store i1 true, ptr %retval, align 1
  br label %return

if.end:                                           ; preds = %entry
  %1 = load ptr, ptr %other.addr, align 8
  %call = call noundef zeroext i1 @_ZNK6icu_756FormateqERKS0_(ptr noundef nonnull align 8 dereferenceable(322) %this1, ptr noundef nonnull align 8 dereferenceable(322) %1)
  br i1 %call, label %if.end3, label %if.then2

if.then2:                                         ; preds = %if.end
  store i1 false, ptr %retval, align 1
  br label %return

if.end3:                                          ; preds = %if.end
  %2 = load ptr, ptr %other.addr, align 8
  store ptr %2, ptr %o, align 8
  %locale = getelementptr inbounds %"class.icu_75::PluralFormat", ptr %this1, i32 0, i32 2
  %3 = load ptr, ptr %o, align 8
  %locale4 = getelementptr inbounds %"class.icu_75::PluralFormat", ptr %3, i32 0, i32 2
  %call5 = call noundef zeroext i1 @_ZNK6icu_756LocaleeqERKS0_(ptr noundef nonnull align 8 dereferenceable(217) %locale, ptr noundef nonnull align 8 dereferenceable(217) %locale4)
  br i1 %call5, label %land.lhs.true, label %land.end

land.lhs.true:                                    ; preds = %if.end3
  %msgPattern = getelementptr inbounds %"class.icu_75::PluralFormat", ptr %this1, i32 0, i32 3
  %4 = load ptr, ptr %o, align 8
  %msgPattern6 = getelementptr inbounds %"class.icu_75::PluralFormat", ptr %4, i32 0, i32 3
  %call7 = call noundef zeroext i1 @_ZNK6icu_7514MessagePatterneqERKS0_(ptr noundef nonnull align 8 dereferenceable(127) %msgPattern, ptr noundef nonnull align 8 dereferenceable(127) %msgPattern6)
  br i1 %call7, label %land.lhs.true8, label %land.end

land.lhs.true8:                                   ; preds = %land.lhs.true
  %numberFormat = getelementptr inbounds %"class.icu_75::PluralFormat", ptr %this1, i32 0, i32 4
  %5 = load ptr, ptr %numberFormat, align 8
  %cmp9 = icmp eq ptr %5, null
  %conv = zext i1 %cmp9 to i32
  %6 = load ptr, ptr %o, align 8
  %numberFormat10 = getelementptr inbounds %"class.icu_75::PluralFormat", ptr %6, i32 0, i32 4
  %7 = load ptr, ptr %numberFormat10, align 8
  %cmp11 = icmp eq ptr %7, null
  %conv12 = zext i1 %cmp11 to i32
  %cmp13 = icmp eq i32 %conv, %conv12
  br i1 %cmp13, label %land.lhs.true14, label %land.end

land.lhs.true14:                                  ; preds = %land.lhs.true8
  %numberFormat15 = getelementptr inbounds %"class.icu_75::PluralFormat", ptr %this1, i32 0, i32 4
  %8 = load ptr, ptr %numberFormat15, align 8
  %cmp16 = icmp eq ptr %8, null
  br i1 %cmp16, label %land.lhs.true20, label %lor.lhs.false

lor.lhs.false:                                    ; preds = %land.lhs.true14
  %numberFormat17 = getelementptr inbounds %"class.icu_75::PluralFormat", ptr %this1, i32 0, i32 4
  %9 = load ptr, ptr %numberFormat17, align 8
  %10 = load ptr, ptr %o, align 8
  %numberFormat18 = getelementptr inbounds %"class.icu_75::PluralFormat", ptr %10, i32 0, i32 4
  %11 = load ptr, ptr %numberFormat18, align 8
  %vtable = load ptr, ptr %9, align 8
  %vfn = getelementptr inbounds ptr, ptr %vtable, i64 3
  %12 = load ptr, ptr %vfn, align 8
  %call19 = call noundef zeroext i1 %12(ptr noundef nonnull align 8 dereferenceable(356) %9, ptr noundef nonnull align 8 dereferenceable(322) %11)
  br i1 %call19, label %land.lhs.true20, label %land.end

land.lhs.true20:                                  ; preds = %lor.lhs.false, %land.lhs.true14
  %pluralRulesWrapper = getelementptr inbounds %"class.icu_75::PluralFormat", ptr %this1, i32 0, i32 6
  %pluralRules = getelementptr inbounds %"class.icu_75::PluralFormat::PluralSelectorAdapter", ptr %pluralRulesWrapper, i32 0, i32 1
  %13 = load ptr, ptr %pluralRules, align 8
  %cmp21 = icmp eq ptr %13, null
  %conv22 = zext i1 %cmp21 to i32
  %14 = load ptr, ptr %o, align 8
  %pluralRulesWrapper23 = getelementptr inbounds %"class.icu_75::PluralFormat", ptr %14, i32 0, i32 6
  %pluralRules24 = getelementptr inbounds %"class.icu_75::PluralFormat::PluralSelectorAdapter", ptr %pluralRulesWrapper23, i32 0, i32 1
  %15 = load ptr, ptr %pluralRules24, align 8
  %cmp25 = icmp eq ptr %15, null
  %conv26 = zext i1 %cmp25 to i32
  %cmp27 = icmp eq i32 %conv22, %conv26
  br i1 %cmp27, label %land.rhs, label %land.end

land.rhs:                                         ; preds = %land.lhs.true20
  %pluralRulesWrapper28 = getelementptr inbounds %"class.icu_75::PluralFormat", ptr %this1, i32 0, i32 6
  %pluralRules29 = getelementptr inbounds %"class.icu_75::PluralFormat::PluralSelectorAdapter", ptr %pluralRulesWrapper28, i32 0, i32 1
  %16 = load ptr, ptr %pluralRules29, align 8
  %cmp30 = icmp eq ptr %16, null
  br i1 %cmp30, label %lor.end, label %lor.rhs

lor.rhs:                                          ; preds = %land.rhs
  %pluralRulesWrapper31 = getelementptr inbounds %"class.icu_75::PluralFormat", ptr %this1, i32 0, i32 6
  %pluralRules32 = getelementptr inbounds %"class.icu_75::PluralFormat::PluralSelectorAdapter", ptr %pluralRulesWrapper31, i32 0, i32 1
  %17 = load ptr, ptr %pluralRules32, align 8
  %18 = load ptr, ptr %o, align 8
  %pluralRulesWrapper33 = getelementptr inbounds %"class.icu_75::PluralFormat", ptr %18, i32 0, i32 6
  %pluralRules34 = getelementptr inbounds %"class.icu_75::PluralFormat::PluralSelectorAdapter", ptr %pluralRulesWrapper33, i32 0, i32 1
  %19 = load ptr, ptr %pluralRules34, align 8
  %vtable35 = load ptr, ptr %17, align 8
  %vfn36 = getelementptr inbounds ptr, ptr %vtable35, i64 3
  %20 = load ptr, ptr %vfn36, align 8
  %call37 = call noundef zeroext i1 %20(ptr noundef nonnull align 8 dereferenceable(28) %17, ptr noundef nonnull align 8 dereferenceable(28) %19)
  br label %lor.end

lor.end:                                          ; preds = %lor.rhs, %land.rhs
  %21 = phi i1 [ true, %land.rhs ], [ %call37, %lor.rhs ]
  br label %land.end

land.end:                                         ; preds = %lor.end, %land.lhs.true20, %lor.lhs.false, %land.lhs.true8, %land.lhs.true, %if.end3
  %22 = phi i1 [ false, %land.lhs.true20 ], [ false, %lor.lhs.false ], [ false, %land.lhs.true8 ], [ false, %land.lhs.true ], [ false, %if.end3 ], [ %21, %lor.end ]
  store i1 %22, ptr %retval, align 1
  br label %return

return:                                           ; preds = %land.end, %if.then2, %if.then
  %23 = load i1, ptr %retval, align 1
  ret i1 %23
}