; Function Attrs: mustprogress uwtable
define noundef zeroext i1 @_ZNK6icu_7512PluralFormateqERKNS_6FormatE(ptr noundef nonnull align 8 dereferenceable(712) %this, ptr noundef nonnull align 8 dereferenceable(322) %other) unnamed_addr #1 align 2 {
entry:
  %cmp = icmp eq ptr %this, %other
  br i1 %cmp, label %return, label %if.end

if.end:                                           ; preds = %entry
  %call = tail call noundef zeroext i1 @_ZNK6icu_756FormateqERKS0_(ptr noundef nonnull align 8 dereferenceable(322) %this, ptr noundef nonnull align 8 dereferenceable(322) %other)
  br i1 %call, label %if.end3, label %return

if.end3:                                          ; preds = %if.end
  %locale = getelementptr inbounds i8, ptr %this, i64 328
  %locale4 = getelementptr inbounds i8, ptr %other, i64 328
  %call5 = tail call noundef zeroext i1 @_ZNK6icu_756LocaleeqERKS0_(ptr noundef nonnull align 8 dereferenceable(217) %locale, ptr noundef nonnull align 8 dereferenceable(217) %locale4)
  br i1 %call5, label %land.lhs.true, label %return

land.lhs.true:                                    ; preds = %if.end3
  %msgPattern = getelementptr inbounds i8, ptr %this, i64 552
  %msgPattern6 = getelementptr inbounds i8, ptr %other, i64 552
  %call7 = tail call noundef zeroext i1 @_ZNK6icu_7514MessagePatterneqERKS0_(ptr noundef nonnull align 8 dereferenceable(127) %msgPattern, ptr noundef nonnull align 8 dereferenceable(127) %msgPattern6)
  br i1 %call7, label %land.lhs.true8, label %return

land.lhs.true8:                                   ; preds = %land.lhs.true
  %numberFormat = getelementptr inbounds i8, ptr %this, i64 680
  %0 = load ptr, ptr %numberFormat, align 8
  %cmp9 = icmp eq ptr %0, null
  %numberFormat10 = getelementptr inbounds i8, ptr %other, i64 680
  %1 = load ptr, ptr %numberFormat10, align 8
  %2 = icmp ne ptr %1, null
  %cmp13 = xor i1 %cmp9, %2
  br i1 %cmp13, label %land.lhs.true14, label %return

land.lhs.true14:                                  ; preds = %land.lhs.true8
  br i1 %cmp9, label %land.lhs.true20, label %lor.lhs.false

lor.lhs.false:                                    ; preds = %land.lhs.true14
  %vtable = load ptr, ptr %0, align 8
  %vfn = getelementptr inbounds i8, ptr %vtable, i64 24
  %3 = load ptr, ptr %vfn, align 8
  %call19 = tail call noundef zeroext i1 %3(ptr noundef nonnull align 8 dereferenceable(356) %0, ptr noundef nonnull align 8 dereferenceable(322) %1)
  br i1 %call19, label %land.lhs.true20, label %return

land.lhs.true20:                                  ; preds = %lor.lhs.false, %land.lhs.true14
  %pluralRules = getelementptr inbounds i8, ptr %this, i64 704
  %4 = load ptr, ptr %pluralRules, align 8
  %cmp21 = icmp eq ptr %4, null
  %pluralRules24 = getelementptr inbounds i8, ptr %other, i64 704
  %5 = load ptr, ptr %pluralRules24, align 8
  %6 = icmp eq ptr %5, null
  %cmp27.not = xor i1 %cmp21, %6
  %brmerge = or i1 %cmp21, %6
  %not.cmp27.not = xor i1 %cmp27.not, true
  br i1 %brmerge, label %return, label %lor.rhs

lor.rhs:                                          ; preds = %land.lhs.true20
  %vtable35 = load ptr, ptr %4, align 8
  %vfn36 = getelementptr inbounds i8, ptr %vtable35, i64 24
  %7 = load ptr, ptr %vfn36, align 8
  %call37 = tail call noundef zeroext i1 %7(ptr noundef nonnull align 8 dereferenceable(28) %4, ptr noundef nonnull align 8 dereferenceable(28) %5)
  br label %return

return:                                           ; preds = %if.end3, %land.lhs.true, %land.lhs.true8, %lor.lhs.false, %lor.rhs, %land.lhs.true20, %if.end, %entry
  %retval.0 = phi i1 [ true, %entry ], [ false, %if.end ], [ %not.cmp27.not, %land.lhs.true20 ], [ false, %lor.lhs.false ], [ false, %land.lhs.true8 ], [ false, %land.lhs.true ], [ false, %if.end3 ], [ %call37, %lor.rhs ]
  ret i1 %retval.0
}